target datalayout = "e-m:e-p270:32:32-p271:32:32-p272:64:64-i64:64-i128:128-f80:128-n8:16:32:64-S128"
target triple = "x86_64-unknown-linux-gnu"

%struct.ecc_set_type = type { i32, i32, ptr, ptr, ptr, ptr, ptr, ptr, ptr, ptr, i32, i32, i32 }
%struct.ecc_key = type { i32, i32, i32, i32, ptr, ptr, %struct.ecc_point, [1 x %struct.sp_int], ptr }
%struct.ecc_point = type { [1 x %struct.sp_int], [1 x %struct.sp_int], [1 x %struct.sp_int] }
%struct.sp_int = type { i32, i32, [129 x i64] }

; Function Attrs: nounwind uwtable
define i32 @wc_ecc_is_valid_idx(i32 noundef %n) #0 {
entry:
  %retval = alloca i32, align 4
  %n.addr = alloca i32, align 4
  %x = alloca i32, align 4
  store i32 %n, ptr %n.addr, align 4
  %0 = load i32, ptr %n.addr, align 4
  %cmp = icmp sge i32 %0, 6
  br i1 %cmp, label %if.then, label %if.end

if.then:                                          ; preds = %entry
  store i32 0, ptr %retval, align 4
  br label %return

if.end:                                           ; preds = %entry
  store i32 0, ptr %x, align 4
  br label %for.cond

for.cond:                                         ; preds = %for.inc, %if.end
  %1 = load i32, ptr %x, align 4
  %idxprom = sext i32 %1 to i64
  %arrayidx = getelementptr inbounds [6 x %struct.ecc_set_type], ptr @ecc_sets, i64 0, i64 %idxprom
  %size = getelementptr inbounds %struct.ecc_set_type, ptr %arrayidx, i32 0, i32 0
  %2 = load i32, ptr %size, align 8
  %cmp1 = icmp ne i32 %2, 0
  br i1 %cmp1, label %for.body, label %for.end

for.body:                                         ; preds = %for.cond
  br label %for.inc

for.inc:                                          ; preds = %for.body
  %3 = load i32, ptr %x, align 4
  %inc = add nsw i32 %3, 1
  store i32 %inc, ptr %x, align 4
  br label %for.cond, !llvm.loop !12

for.end:                                          ; preds = %for.cond
  %4 = load i32, ptr %n.addr, align 4
  %cmp2 = icmp sge i32 %4, -1
  br i1 %cmp2, label %land.lhs.true, label %if.end5

land.lhs.true:                                    ; preds = %for.end
  %5 = load i32, ptr %n.addr, align 4
  %6 = load i32, ptr %x, align 4
  %cmp3 = icmp slt i32 %5, %6
  br i1 %cmp3, label %if.then4, label %if.end5

if.then4:                                         ; preds = %land.lhs.true
  store i32 1, ptr %retval, align 4
  br label %return

if.end5:                                          ; preds = %land.lhs.true, %for.end
  store i32 0, ptr %retval, align 4
  br label %return

return:                                           ; preds = %if.end5, %if.then4, %if.then
  %7 = load i32, ptr %retval, align 4
  ret i32 %7
}

; Function Attrs: nounwind uwtable
define i32 @wc_ecc_export_x963(ptr noundef %key, ptr noundef %out, ptr noundef %outLen) #0 {
entry:
  %retval = alloca i32, align 4
  %key.addr = alloca ptr, align 8
  %out.addr = alloca ptr, align 8
  %outLen.addr = alloca ptr, align 8
  %ret = alloca i32, align 4
  %numlen = alloca i32, align 4
  %buf = alloca [257 x i8], align 16
  %pubxlen = alloca i32, align 4
  %pubylen = alloca i32, align 4
  store ptr %key, ptr %key.addr, align 8
  store ptr %out, ptr %out.addr, align 8
  store ptr %outLen, ptr %outLen.addr, align 8
  store i32 0, ptr %ret, align 4
  %0 = load ptr, ptr %key.addr, align 8
  %cmp = icmp ne ptr %0, null
  br i1 %cmp, label %land.lhs.true, label %if.end

land.lhs.true:                                    ; preds = %entry
  %1 = load ptr, ptr %out.addr, align 8
  %cmp1 = icmp eq ptr %1, null
  br i1 %cmp1, label %land.lhs.true2, label %if.end

land.lhs.true2:                                   ; preds = %land.lhs.true
  %2 = load ptr, ptr %outLen.addr, align 8
  %cmp3 = icmp ne ptr %2, null
  br i1 %cmp3, label %if.then, label %if.end

if.then:                                          ; preds = %land.lhs.true2
  %3 = load ptr, ptr %key.addr, align 8
  %dp = getelementptr inbounds %struct.ecc_key, ptr %3, i32 0, i32 4
  %4 = load ptr, ptr %dp, align 8
  %tobool = icmp ne ptr %4, null
  br i1 %tobool, label %cond.true, label %cond.false

cond.true:                                        ; preds = %if.then
  %5 = load ptr, ptr %key.addr, align 8
  %dp4 = getelementptr inbounds %struct.ecc_key, ptr %5, i32 0, i32 4
  %6 = load ptr, ptr %dp4, align 8
  %size = getelementptr inbounds %struct.ecc_set_type, ptr %6, i32 0, i32 0
  %7 = load i32, ptr %size, align 8
  br label %cond.end

cond.false:                                       ; preds = %if.then
  br label %cond.end

cond.end:                                         ; preds = %cond.false, %cond.true
  %cond = phi i32 [ %7, %cond.true ], [ 66, %cond.false ]
  store i32 %cond, ptr %numlen, align 4
  %8 = load i32, ptr %numlen, align 4
  %mul = mul i32 2, %8
  %add = add i32 1, %mul
  %9 = load ptr, ptr %outLen.addr, align 8
  store i32 %add, ptr %9, align 4
  store i32 -202, ptr %retval, align 4
  br label %return

if.end:                                           ; preds = %land.lhs.true2, %land.lhs.true, %entry
  %10 = load ptr, ptr %key.addr, align 8
  %cmp5 = icmp eq ptr %10, null
  br i1 %cmp5, label %if.then9, label %lor.lhs.false

lor.lhs.false:                                    ; preds = %if.end
  %11 = load ptr, ptr %out.addr, align 8
  %cmp6 = icmp eq ptr %11, null
  br i1 %cmp6, label %if.then9, label %lor.lhs.false7

lor.lhs.false7:                                   ; preds = %lor.lhs.false
  %12 = load ptr, ptr %outLen.addr, align 8
  %cmp8 = icmp eq ptr %12, null
  br i1 %cmp8, label %if.then9, label %if.end10

if.then9:                                         ; preds = %lor.lhs.false7, %lor.lhs.false, %if.end
  store i32 -170, ptr %retval, align 4
  br label %return

if.end10:                                         ; preds = %lor.lhs.false7
  %13 = load ptr, ptr %key.addr, align 8
  %type = getelementptr inbounds %struct.ecc_key, ptr %13, i32 0, i32 0
  %14 = load i32, ptr %type, align 8
  %cmp11 = icmp eq i32 %14, 3
  br i1 %cmp11, label %if.then12, label %if.end13

if.then12:                                        ; preds = %if.end10
  store i32 -246, ptr %retval, align 4
  br label %return

if.end13:                                         ; preds = %if.end10
  %15 = load ptr, ptr %key.addr, align 8
  %type14 = getelementptr inbounds %struct.ecc_key, ptr %15, i32 0, i32 0
  %16 = load i32, ptr %type14, align 8
  %cmp15 = icmp eq i32 %16, 0
  br i1 %cmp15, label %if.then21, label %lor.lhs.false16

lor.lhs.false16:                                  ; preds = %if.end13
  %17 = load ptr, ptr %key.addr, align 8
  %idx = getelementptr inbounds %struct.ecc_key, ptr %17, i32 0, i32 1
  %18 = load i32, ptr %idx, align 4
  %call = call i32 @wc_ecc_is_valid_idx(i32 noundef %18)
  %cmp17 = icmp eq i32 %call, 0
  br i1 %cmp17, label %if.then21, label %lor.lhs.false18

lor.lhs.false18:                                  ; preds = %lor.lhs.false16
  %19 = load ptr, ptr %key.addr, align 8
  %dp19 = getelementptr inbounds %struct.ecc_key, ptr %19, i32 0, i32 4
  %20 = load ptr, ptr %dp19, align 8
  %cmp20 = icmp eq ptr %20, null
  br i1 %cmp20, label %if.then21, label %if.end22

if.then21:                                        ; preds = %lor.lhs.false18, %lor.lhs.false16, %if.end13
  store i32 -170, ptr %retval, align 4
  br label %return

if.end22:                                         ; preds = %lor.lhs.false18
  %21 = load ptr, ptr %key.addr, align 8
  %dp23 = getelementptr inbounds %struct.ecc_key, ptr %21, i32 0, i32 4
  %22 = load ptr, ptr %dp23, align 8
  %size24 = getelementptr inbounds %struct.ecc_set_type, ptr %22, i32 0, i32 0
  %23 = load i32, ptr %size24, align 8
  store i32 %23, ptr %numlen, align 4
  %24 = load ptr, ptr %outLen.addr, align 8
  %25 = load i32, ptr %24, align 4
  %26 = load i32, ptr %numlen, align 4
  %mul25 = mul i32 2, %26
  %add26 = add i32 1, %mul25
  %cmp27 = icmp ult i32 %25, %add26
  br i1 %cmp27, label %if.then28, label %if.end31

if.then28:                                        ; preds = %if.end22
  %27 = load i32, ptr %numlen, align 4
  %mul29 = mul i32 2, %27
  %add30 = add i32 1, %mul29
  %28 = load ptr, ptr %outLen.addr, align 8
  store i32 %add30, ptr %28, align 4
  store i32 -132, ptr %retval, align 4
  br label %return

if.end31:                                         ; preds = %if.end22
  %29 = load ptr, ptr %key.addr, align 8
  %pubkey = getelementptr inbounds %struct.ecc_key, ptr %29, i32 0, i32 6
  %x = getelementptr inbounds %struct.ecc_point, ptr %pubkey, i32 0, i32 0
  %arraydecay = getelementptr inbounds [1 x %struct.sp_int], ptr %x, i64 0, i64 0
  %call32 = call i32 @sp_unsigned_bin_size(ptr noundef %arraydecay)
  store i32 %call32, ptr %pubxlen, align 4
  %30 = load ptr, ptr %key.addr, align 8
  %pubkey33 = getelementptr inbounds %struct.ecc_key, ptr %30, i32 0, i32 6
  %y = getelementptr inbounds %struct.ecc_point, ptr %pubkey33, i32 0, i32 1
  %arraydecay34 = getelementptr inbounds [1 x %struct.sp_int], ptr %y, i64 0, i64 0
  %call35 = call i32 @sp_unsigned_bin_size(ptr noundef %arraydecay34)
  store i32 %call35, ptr %pubylen, align 4
  %31 = load i32, ptr %pubxlen, align 4
  %32 = load i32, ptr %numlen, align 4
  %cmp36 = icmp ugt i32 %31, %32
  br i1 %cmp36, label %if.then39, label %lor.lhs.false37

lor.lhs.false37:                                  ; preds = %if.end31
  %33 = load i32, ptr %pubylen, align 4
  %34 = load i32, ptr %numlen, align 4
  %cmp38 = icmp ugt i32 %33, %34
  br i1 %cmp38, label %if.then39, label %if.end40

if.then39:                                        ; preds = %lor.lhs.false37, %if.end31
  br label %do.body

do.body:                                          ; preds = %if.then39
  br label %do.end

do.end:                                           ; preds = %do.body
  store i32 -132, ptr %retval, align 4
  br label %return

if.end40:                                         ; preds = %lor.lhs.false37
  %35 = load ptr, ptr %out.addr, align 8
  %arrayidx = getelementptr inbounds i8, ptr %35, i64 0
  store i8 4, ptr %arrayidx, align 1
  %arraydecay41 = getelementptr inbounds [257 x i8], ptr %buf, i64 0, i64 0
  call void @llvm.memset.p0.i64(ptr align 16 %arraydecay41, i8 0, i64 257, i1 false)
  %36 = load ptr, ptr %key.addr, align 8
  %pubkey42 = getelementptr inbounds %struct.ecc_key, ptr %36, i32 0, i32 6
  %x43 = getelementptr inbounds %struct.ecc_point, ptr %pubkey42, i32 0, i32 0
  %arraydecay44 = getelementptr inbounds [1 x %struct.sp_int], ptr %x43, i64 0, i64 0
  %arraydecay45 = getelementptr inbounds [257 x i8], ptr %buf, i64 0, i64 0
  %37 = load i32, ptr %numlen, align 4
  %38 = load i32, ptr %pubxlen, align 4
  %sub = sub i32 %37, %38
  %idx.ext = zext i32 %sub to i64
  %add.ptr = getelementptr inbounds i8, ptr %arraydecay45, i64 %idx.ext
  %call46 = call i32 @sp_to_unsigned_bin(ptr noundef %arraydecay44, ptr noundef %add.ptr)
  store i32 %call46, ptr %ret, align 4
  %39 = load i32, ptr %ret, align 4
  %cmp47 = icmp ne i32 %39, 0
  br i1 %cmp47, label %if.then48, label %if.end49

if.then48:                                        ; preds = %if.end40
  br label %done

if.end49:                                         ; preds = %if.end40
  %40 = load ptr, ptr %out.addr, align 8
  %add.ptr50 = getelementptr inbounds i8, ptr %40, i64 1
  %arraydecay51 = getelementptr inbounds [257 x i8], ptr %buf, i64 0, i64 0
  %41 = load i32, ptr %numlen, align 4
  %conv = zext i32 %41 to i64
  call void @llvm.memcpy.p0.p0.i64(ptr align 1 %add.ptr50, ptr align 16 %arraydecay51, i64 %conv, i1 false)
  %arraydecay52 = getelementptr inbounds [257 x i8], ptr %buf, i64 0, i64 0
  call void @llvm.memset.p0.i64(ptr align 16 %arraydecay52, i8 0, i64 257, i1 false)
  %42 = load ptr, ptr %key.addr, align 8
  %pubkey53 = getelementptr inbounds %struct.ecc_key, ptr %42, i32 0, i32 6
  %y54 = getelementptr inbounds %struct.ecc_point, ptr %pubkey53, i32 0, i32 1
  %arraydecay55 = getelementptr inbounds [1 x %struct.sp_int], ptr %y54, i64 0, i64 0
  %arraydecay56 = getelementptr inbounds [257 x i8], ptr %buf, i64 0, i64 0
  %43 = load i32, ptr %numlen, align 4
  %44 = load i32, ptr %pubylen, align 4
  %sub57 = sub i32 %43, %44
  %idx.ext58 = zext i32 %sub57 to i64
  %add.ptr59 = getelementptr inbounds i8, ptr %arraydecay56, i64 %idx.ext58
  %call60 = call i32 @sp_to_unsigned_bin(ptr noundef %arraydecay55, ptr noundef %add.ptr59)
  store i32 %call60, ptr %ret, align 4
  %45 = load i32, ptr %ret, align 4
  %cmp61 = icmp ne i32 %45, 0
  br i1 %cmp61, label %if.then63, label %if.end64

if.then63:                                        ; preds = %if.end49
  br label %done

if.end64:                                         ; preds = %if.end49
  %46 = load ptr, ptr %out.addr, align 8
  %add.ptr65 = getelementptr inbounds i8, ptr %46, i64 1
  %47 = load i32, ptr %numlen, align 4
  %idx.ext66 = zext i32 %47 to i64
  %add.ptr67 = getelementptr inbounds i8, ptr %add.ptr65, i64 %idx.ext66
  %arraydecay68 = getelementptr inbounds [257 x i8], ptr %buf, i64 0, i64 0
  %48 = load i32, ptr %numlen, align 4
  %conv69 = zext i32 %48 to i64
  call void @llvm.memcpy.p0.p0.i64(ptr align 1 %add.ptr67, ptr align 16 %arraydecay68, i64 %conv69, i1 false)
  %49 = load i32, ptr %numlen, align 4
  %mul70 = mul i32 2, %49
  %add71 = add i32 1, %mul70
  %50 = load ptr, ptr %outLen.addr, align 8
  store i32 %add71, ptr %50, align 4
  br label %done

done:                                             ; preds = %if.end64, %if.then63, %if.then48
  %51 = load i32, ptr %ret, align 4
  store i32 %51, ptr %retval, align 4
  br label %return

return:                                           ; preds = %done, %do.end, %if.then28, %if.then21, %if.then12, %if.then9, %cond.end
  %52 = load i32, ptr %retval, align 4
  ret i32 %52
}