; Function Attrs: nounwind uwtable
define i32 @wc_ecc_export_x963(ptr noundef %key, ptr noundef writeonly %out, ptr noundef %outLen) local_unnamed_addr #2 {
entry:
  %buf = alloca [257 x i8], align 16
  %cmp = icmp ne ptr %key, null
  %cmp1 = icmp eq ptr %out, null
  %cmp3 = icmp ne ptr %outLen, null
  %0 = and i1 %cmp, %cmp3
  %or.cond1 = and i1 %cmp1, %0
  br i1 %or.cond1, label %if.then, label %if.end

if.then:                                          ; preds = %entry
  %dp = getelementptr inbounds nuw i8, ptr %key, i64 16
  %1 = load ptr, ptr %dp, align 8
  %tobool.not = icmp eq ptr %1, null
  br i1 %tobool.not, label %cond.end, label %cond.true

cond.true:                                        ; preds = %if.then
  %2 = load i32, ptr %1, align 8
  %3 = shl i32 %2, 1
  %4 = or disjoint i32 %3, 1
  br label %cond.end

cond.end:                                         ; preds = %if.then, %cond.true
  %cond = phi i32 [ %4, %cond.true ], [ 133, %if.then ]
  store i32 %cond, ptr %outLen, align 4
  br label %return

if.end:                                           ; preds = %entry
  %cmp5 = icmp eq ptr %key, null
  %cmp8 = icmp eq ptr %outLen, null
  %5 = or i1 %cmp5, %cmp8
  %or.cond3 = or i1 %cmp1, %5
  br i1 %or.cond3, label %return, label %if.end10

if.end10:                                         ; preds = %if.end
  %6 = load i32, ptr %key, align 8
  switch i32 %6, label %lor.lhs.false16 [
    i32 3, label %return
    i32 0, label %if.then21
  ]

lor.lhs.false16:                                  ; preds = %if.end10
  %idx = getelementptr inbounds nuw i8, ptr %key, i64 4
  %7 = load i32, ptr %idx, align 4
  %8 = add i32 %7, -5
  %narrow.i = icmp ult i32 %8, -6
  br i1 %narrow.i, label %if.then21, label %lor.lhs.false18

lor.lhs.false18:                                  ; preds = %lor.lhs.false16
  %dp19 = getelementptr inbounds nuw i8, ptr %key, i64 16
  %9 = load ptr, ptr %dp19, align 8
  %cmp20 = icmp eq ptr %9, null
  br i1 %cmp20, label %if.then21, label %if.end22

if.then21:                                        ; preds = %if.end10, %lor.lhs.false18, %lor.lhs.false16
  br label %return

if.end22:                                         ; preds = %lor.lhs.false18
  %10 = load i32, ptr %9, align 8
  %11 = load i32, ptr %outLen, align 4
  %mul25 = shl i32 %10, 1
  %add26 = or disjoint i32 %mul25, 1
  %cmp27.not = icmp ugt i32 %11, %mul25
  br i1 %cmp27.not, label %if.end31, label %if.then28

if.then28:                                        ; preds = %if.end22
  store i32 %add26, ptr %outLen, align 4
  br label %return

if.end31:                                         ; preds = %if.end22
  %pubkey = getelementptr inbounds nuw i8, ptr %key, i64 32
  %call32 = tail call i32 @sp_unsigned_bin_size(ptr noundef nonnull %pubkey) #19
  %y = getelementptr inbounds nuw i8, ptr %key, i64 1072
  %call35 = tail call i32 @sp_unsigned_bin_size(ptr noundef nonnull %y) #19
  %cmp36 = icmp ugt i32 %call32, %10
  %cmp38 = icmp ugt i32 %call35, %10
  %or.cond = select i1 %cmp36, i1 true, i1 %cmp38
  br i1 %or.cond, label %return, label %if.end40

if.end40:                                         ; preds = %if.end31
  store i8 4, ptr %out, align 1
  call void @llvm.memset.p0.i64(ptr noundef nonnull align 16 dereferenceable(257) %buf, i8 0, i64 257, i1 false)
  %sub = sub nuw i32 %10, %call32
  %idx.ext = zext i32 %sub to i64
  %add.ptr = getelementptr inbounds nuw i8, ptr %buf, i64 %idx.ext
  %call46 = call i32 @sp_to_unsigned_bin(ptr noundef nonnull %pubkey, ptr noundef nonnull %add.ptr) #19
  %cmp47.not = icmp eq i32 %call46, 0
  br i1 %cmp47.not, label %if.end49, label %return

if.end49:                                         ; preds = %if.end40
  %add.ptr50 = getelementptr inbounds nuw i8, ptr %out, i64 1
  %conv = zext i32 %10 to i64
  call void @llvm.memcpy.p0.p0.i64(ptr nonnull align 1 %add.ptr50, ptr nonnull align 16 %buf, i64 %conv, i1 false)
  call void @llvm.memset.p0.i64(ptr noundef nonnull align 16 dereferenceable(257) %buf, i8 0, i64 257, i1 false)
  %sub57 = sub i32 %10, %call35
  %idx.ext58 = zext i32 %sub57 to i64
  %add.ptr59 = getelementptr inbounds nuw i8, ptr %buf, i64 %idx.ext58
  %call60 = call i32 @sp_to_unsigned_bin(ptr noundef nonnull %y, ptr noundef nonnull %add.ptr59) #19
  %cmp61.not = icmp eq i32 %call60, 0
  br i1 %cmp61.not, label %if.end64, label %return

if.end64:                                         ; preds = %if.end49
  %add.ptr67 = getelementptr inbounds nuw i8, ptr %add.ptr50, i64 %conv
  call void @llvm.memcpy.p0.p0.i64(ptr nonnull align 1 %add.ptr67, ptr nonnull align 16 %buf, i64 %conv, i1 false)
  store i32 %add26, ptr %outLen, align 4
  br label %return

return:                                           ; preds = %if.end64, %if.end40, %if.end49, %if.end31, %if.end10, %if.end, %if.then28, %if.then21, %cond.end
  %retval.0 = phi i32 [ -202, %cond.end ], [ -170, %if.then21 ], [ -132, %if.then28 ], [ -170, %if.end ], [ -246, %if.end10 ], [ -132, %if.end31 ], [ %call46, %if.end40 ], [ %call60, %if.end49 ], [ 0, %if.end64 ]
  ret i32 %retval.0
}